target datalayout = "e-m:e-p270:32:32-p271:32:32-p272:64:64-i64:64-i128:128-f80:128-n8:16:32:64-S128"
target triple = "x86_64-pc-linux-gnu"

%"class.pxrInternal_v0_24__pxrReserved__::TfRefPtr.149" = type { ptr }
%class.anon = type { ptr, ptr }
%"class.tbb::detail::d1::task_arena_function" = type <{ %"class.tbb::detail::d1::delegate_base", ptr, %"class.tbb::detail::d0::aligned_space", i8, [7 x i8] }>
%"class.tbb::detail::d1::delegate_base" = type { ptr }
%"class.tbb::detail::d0::aligned_space" = type { [8 x i8] }

; Function Attrs: mustprogress nounwind uwtable
define linkonce_odr noundef ptr @_ZN3tbb6detail2d011punned_castIPN32pxrInternal_v0_24__pxrReserved__8TfRefPtrINS3_8SdfLayerEEEA8_KhEET_PT0_(ptr noundef %0) #5 comdat {
  %2 = alloca ptr, align 8
  %3 = alloca i64, align 8
  store ptr %0, ptr %2, align 8
  %4 = load ptr, ptr %2, align 8
  %5 = ptrtoint ptr %4 to i64
  store i64 %5, ptr %3, align 8
  %6 = load i64, ptr %3, align 8
  %7 = inttoptr i64 %6 to ptr
  ret ptr %7
}

; Function Attrs: mustprogress uwtable
define internal void @"_ZZN32pxrInternal_v0_24__pxrReserved__8SdfLayer10FindOrOpenERKNSt7__cxx1112basic_stringIcSt11char_traitsIcESaIcEEERKSt3mapIS6_S6_St4lessIS6_ESaISt4pairIS7_S6_EEEENK3$_0clEv"(ptr dead_on_unwind noalias writable sret(%"class.pxrInternal_v0_24__pxrReserved__::TfRefPtr.149") align 8 %0, ptr noundef nonnull align 8 dereferenceable(16) %1) #4 align 2 {
  %3 = alloca ptr, align 8
  %4 = alloca ptr, align 8
  store ptr %0, ptr %3, align 8
  store ptr %1, ptr %4, align 8
  %5 = load ptr, ptr %4, align 8
  %6 = getelementptr inbounds nuw %class.anon, ptr %5, i32 0, i32 0
  %7 = load ptr, ptr %6, align 8
  %8 = getelementptr inbounds nuw %class.anon, ptr %5, i32 0, i32 1
  %9 = load ptr, ptr %8, align 8
  call void @_ZN32pxrInternal_v0_24__pxrReserved__8SdfLayer27_OpenLayerAndUnlockRegistryIN3tbb6detail2d116queuing_rw_mutex11scoped_lockEEENS_8TfRefPtrIS0_EERT_RKNS0_20_FindOrOpenLayerInfoEb(ptr dead_on_unwind writable sret(%"class.pxrInternal_v0_24__pxrReserved__::TfRefPtr.149") align 8 %0, ptr noundef nonnull align 8 dereferenceable(27) %7, ptr noundef nonnull align 8 dereferenceable(280) %9, i1 noundef zeroext false)
  ret void
}

; Function Attrs: mustprogress uwtable
define linkonce_odr noundef ptr @_ZNK3tbb6detail2d013aligned_spaceIN32pxrInternal_v0_24__pxrReserved__8TfRefPtrINS3_8SdfLayerEEELm1EE5beginEv(ptr noundef nonnull align 8 dereferenceable(8) %0) #4 comdat align 2 {
  %2 = alloca ptr, align 8
  store ptr %0, ptr %2, align 8
  %3 = load ptr, ptr %2, align 8
  %4 = getelementptr inbounds nuw %"class.tbb::detail::d0::aligned_space", ptr %3, i32 0, i32 0
  %5 = call noundef ptr @_ZN3tbb6detail2d011punned_castIPN32pxrInternal_v0_24__pxrReserved__8TfRefPtrINS3_8SdfLayerEEEA8_KhEET_PT0_(ptr noundef %4)
  ret ptr %5
}

; Function Attrs: mustprogress uwtable
define internal noundef zeroext i1 @"_ZNK3tbb6detail2d119task_arena_functionIZN32pxrInternal_v0_24__pxrReserved__8SdfLayer10FindOrOpenERKNSt7__cxx1112basic_stringIcSt11char_traitsIcESaIcEEERKSt3mapISA_SA_St4lessISA_ESaISt4pairISB_SA_EEEE3$_0NS3_8TfRefPtrIS4_EEEclEv"(ptr noundef nonnull align 8 dereferenceable(25) %0) unnamed_addr #4 align 2 {
  %2 = alloca ptr, align 8
  store ptr %0, ptr %2, align 8
  %3 = load ptr, ptr %2, align 8
  %4 = getelementptr inbounds nuw %"class.tbb::detail::d1::task_arena_function", ptr %3, i32 0, i32 2
  %5 = call noundef ptr @_ZNK3tbb6detail2d013aligned_spaceIN32pxrInternal_v0_24__pxrReserved__8TfRefPtrINS3_8SdfLayerEEELm1EE5beginEv(ptr noundef nonnull align 8 dereferenceable(8) %4)
  %6 = getelementptr inbounds nuw %"class.tbb::detail::d1::task_arena_function", ptr %3, i32 0, i32 1
  %7 = load ptr, ptr %6, align 8
  call void @"_ZZN32pxrInternal_v0_24__pxrReserved__8SdfLayer10FindOrOpenERKNSt7__cxx1112basic_stringIcSt11char_traitsIcESaIcEEERKSt3mapIS6_S6_St4lessIS6_ESaISt4pairIS7_S6_EEEENK3$_0clEv"(ptr dead_on_unwind writable sret(%"class.pxrInternal_v0_24__pxrReserved__::TfRefPtr.149") align 8 %5, ptr noundef nonnull align 8 dereferenceable(16) %7)
  ret i1 true
}