; Function Attrs: mustprogress uwtable
define internal noundef zeroext i1 @"_ZNK3tbb6detail2d119task_arena_functionIZN32pxrInternal_v0_24__pxrReserved__8SdfLayer10FindOrOpenERKNSt7__cxx1112basic_stringIcSt11char_traitsIcESaIcEEERKSt3mapISA_SA_St4lessISA_ESaISt4pairISB_SA_EEEE3$_0NS3_8TfRefPtrIS4_EEEclEv"(ptr noundef nonnull align 8 dereferenceable(25) %0) unnamed_addr #3 align 2 {
  %2 = getelementptr inbounds nuw i8, ptr %0, i64 16
  %3 = getelementptr inbounds nuw i8, ptr %0, i64 8
  %4 = load ptr, ptr %3, align 8
  %.val = load ptr, ptr %4, align 8
  %5 = getelementptr i8, ptr %4, i64 8
  %.val1 = load ptr, ptr %5, align 8
  tail call void @_ZN32pxrInternal_v0_24__pxrReserved__8SdfLayer27_OpenLayerAndUnlockRegistryIN3tbb6detail2d116queuing_rw_mutex11scoped_lockEEENS_8TfRefPtrIS0_EERT_RKNS0_20_FindOrOpenLayerInfoEb(ptr dead_on_unwind nonnull writable sret(%"class.pxrInternal_v0_24__pxrReserved__::TfRefPtr.149") align 8 %2, ptr noundef nonnull align 8 dereferenceable(27) %.val, ptr noundef nonnull align 8 dereferenceable(280) %.val1, i1 noundef zeroext false)
  ret i1 true
}